target datalayout = "e-m:e-p270:32:32-p271:32:32-p272:64:64-i64:64-i128:128-f80:128-n8:16:32:64-S128"
target triple = "x86_64-pc-linux-gnu"

%struct._connParams = type { ptr, ptr, ptr, ptr, i32, ptr }
%struct._restoreOptions = type { i32, i32, i32, i32, i32, i32, ptr, ptr, i32, i32, i32, i32, i32, i32, i32, i32, i32, i32, ptr, i32, i32, i32, ptr, i32, i32, ptr, i32, ptr, i32, i32, i32, i32, i32, %struct.SimpleStringList, %struct.SimpleStringList, %struct.SimpleStringList, %struct.SimpleStringList, %struct.SimpleStringList, %struct.SimpleStringList, i32, %struct._connParams, i32, i32, %struct.pg_compress_specification, i32, i8, i32, ptr, i32, i32, i32, i8, i8 }
%struct.SimpleStringList = type { ptr, ptr }
%struct.pg_compress_specification = type { i32, i32, i32, i32, i8, ptr }

; Function Attrs: nounwind uwtable
define dso_local ptr @NewRestoreOptions() #0 {
  %1 = alloca ptr, align 8
  call void @llvm.lifetime.start.p0(i64 8, ptr %1) #11
  %2 = call ptr @pg_malloc0(i64 noundef 400)
  store ptr %2, ptr %1, align 8
  %3 = load ptr, ptr %1, align 8
  %4 = getelementptr inbounds nuw %struct._restoreOptions, ptr %3, i32 0, i32 26
  store i32 0, ptr %4, align 8
  %5 = load ptr, ptr %1, align 8
  %6 = getelementptr inbounds nuw %struct._restoreOptions, ptr %5, i32 0, i32 40
  %7 = getelementptr inbounds nuw %struct._connParams, ptr %6, i32 0, i32 4
  store i32 0, ptr %7, align 8
  %8 = load ptr, ptr %1, align 8
  %9 = getelementptr inbounds nuw %struct._restoreOptions, ptr %8, i32 0, i32 19
  store i32 255, ptr %9, align 8
  %10 = load ptr, ptr %1, align 8
  %11 = getelementptr inbounds nuw %struct._restoreOptions, ptr %10, i32 0, i32 43
  %12 = getelementptr inbounds nuw %struct.pg_compress_specification, ptr %11, i32 0, i32 0
  store i32 0, ptr %12, align 8
  %13 = load ptr, ptr %1, align 8
  %14 = getelementptr inbounds nuw %struct._restoreOptions, ptr %13, i32 0, i32 43
  %15 = getelementptr inbounds nuw %struct.pg_compress_specification, ptr %14, i32 0, i32 2
  store i32 0, ptr %15, align 8
  %16 = load ptr, ptr %1, align 8
  %17 = getelementptr inbounds nuw %struct._restoreOptions, ptr %16, i32 0, i32 51
  store i8 1, ptr %17, align 4
  %18 = load ptr, ptr %1, align 8
  %19 = getelementptr inbounds nuw %struct._restoreOptions, ptr %18, i32 0, i32 52
  store i8 1, ptr %19, align 1
  %20 = load ptr, ptr %1, align 8
  call void @llvm.lifetime.end.p0(i64 8, ptr %1) #11
  ret ptr %20
}