; Function Attrs: nounwind uwtable
define dso_local ptr @NewRestoreOptions() local_unnamed_addr #0 {
  %1 = tail call ptr @pg_malloc0(i64 noundef 400) #22
  %2 = getelementptr inbounds nuw i8, ptr %1, i64 128
  store i32 0, ptr %2, align 8
  %3 = getelementptr inbounds nuw i8, ptr %1, i64 304
  store i32 0, ptr %3, align 8
  %4 = getelementptr inbounds nuw i8, ptr %1, i64 88
  store i32 255, ptr %4, align 8
  %5 = getelementptr inbounds nuw i8, ptr %1, i64 328
  store i32 0, ptr %5, align 8
  %6 = getelementptr inbounds nuw i8, ptr %1, i64 336
  store i32 0, ptr %6, align 8
  %7 = getelementptr inbounds nuw i8, ptr %1, i64 396
  store i8 1, ptr %7, align 4
  %8 = getelementptr inbounds nuw i8, ptr %1, i64 397
  store i8 1, ptr %8, align 1
  ret ptr %1
}